; ModuleID = '7/879.c'
source_filename = "7/879.c"
target datalayout = "e-m:e-p270:32:32-p271:32:32-p272:64:64-i64:64-f80:128-n8:16:32:64-S128"
target triple = "x86_64-pc-linux-gnu"

@.str = private unnamed_addr constant [3 x i8] c"%s\00", align 1

; Function Attrs: noinline nounwind uwtable
define dso_local i32 @main() #0 {
  %1 = alloca i32, align 4
  %2 = alloca i8*, align 8
  %3 = alloca i8*, align 8
  %4 = alloca i8*, align 8
  %5 = alloca i32, align 4
  %6 = alloca i32, align 4
  %7 = alloca i32, align 4
  store i32 0, i32* %1, align 4
  %8 = call noalias i8* @malloc(i64 1024) #3
  store i8* %8, i8** %2, align 8
  %9 = call noalias i8* @malloc(i64 100) #3
  store i8* %9, i8** %3, align 8
  %10 = call noalias i8* @malloc(i64 100) #3
  store i8* %10, i8** %4, align 8
  %11 = load i8*, i8** %2, align 8
  %12 = call i32 (i8*, ...) bitcast (i32 (...)* @gets to i32 (i8*, ...)*)(i8* %11)
  %13 = load i8*, i8** %3, align 8
  %14 = call i32 (i8*, ...) bitcast (i32 (...)* @gets to i32 (i8*, ...)*)(i8* %13)
  %15 = load i8*, i8** %4, align 8
  %16 = call i32 (i8*, ...) bitcast (i32 (...)* @gets to i32 (i8*, ...)*)(i8* %15)
  store i32 0, i32* %5, align 4
  br label %17

17:                                               ; preds = %98, %0
  %18 = load i8*, i8** %2, align 8
  %19 = load i32, i32* %5, align 4
  %20 = sext i32 %19 to i64
  %21 = getelementptr inbounds i8, i8* %18, i64 %20
  %22 = load i8, i8* %21, align 1
  %23 = sext i8 %22 to i32
  %24 = icmp ne i32 %23, 0
  br i1 %24, label %25, label %101

25:                                               ; preds = %17
  %26 = load i8*, i8** %2, align 8
  %27 = load i32, i32* %5, align 4
  %28 = sext i32 %27 to i64
  %29 = getelementptr inbounds i8, i8* %26, i64 %28
  %30 = load i8, i8* %29, align 1
  %31 = sext i8 %30 to i32
  %32 = load i8*, i8** %3, align 8
  %33 = load i8, i8* %32, align 1
  %34 = sext i8 %33 to i32
  %35 = icmp eq i32 %31, %34
  br i1 %35, label %36, label %97

36:                                               ; preds = %25
  store i32 0, i32* %6, align 4
  br label %37

37:                                               ; preds = %64, %36
  %38 = load i8*, i8** %3, align 8
  %39 = load i32, i32* %6, align 4
  %40 = sext i32 %39 to i64
  %41 = getelementptr inbounds i8, i8* %38, i64 %40
  %42 = load i8, i8* %41, align 1
  %43 = sext i8 %42 to i32
  %44 = icmp ne i32 %43, 0
  br i1 %44, label %45, label %67

45:                                               ; preds = %37
  store i32 0, i32* %7, align 4
  %46 = load i8*, i8** %2, align 8
  %47 = load i32, i32* %5, align 4
  %48 = sext i32 %47 to i64
  %49 = getelementptr inbounds i8, i8* %46, i64 %48
  %50 = load i32, i32* %6, align 4
  %51 = sext i32 %50 to i64
  %52 = getelementptr inbounds i8, i8* %49, i64 %51
  %53 = load i8, i8* %52, align 1
  %54 = sext i8 %53 to i32
  %55 = load i8*, i8** %3, align 8
  %56 = load i32, i32* %6, align 4
  %57 = sext i32 %56 to i64
  %58 = getelementptr inbounds i8, i8* %55, i64 %57
  %59 = load i8, i8* %58, align 1
  %60 = sext i8 %59 to i32
  %61 = icmp ne i32 %54, %60
  br i1 %61, label %62, label %63

62:                                               ; preds = %45
  store i32 1, i32* %7, align 4
  br label %67

63:                                               ; preds = %45
  br label %64

64:                                               ; preds = %63
  %65 = load i32, i32* %6, align 4
  %66 = add nsw i32 %65, 1
  store i32 %66, i32* %6, align 4
  br label %37

67:                                               ; preds = %62, %37
  %68 = load i32, i32* %7, align 4
  %69 = icmp eq i32 %68, 0
  br i1 %69, label %70, label %96

70:                                               ; preds = %67
  store i32 0, i32* %6, align 4
  br label %71

71:                                               ; preds = %92, %70
  %72 = load i8*, i8** %4, align 8
  %73 = load i32, i32* %6, align 4
  %74 = sext i32 %73 to i64
  %75 = getelementptr inbounds i8, i8* %72, i64 %74
  %76 = load i8, i8* %75, align 1
  %77 = sext i8 %76 to i32
  %78 = icmp ne i32 %77, 0
  br i1 %78, label %79, label %95

79:                                               ; preds = %71
  %80 = load i8*, i8** %4, align 8
  %81 = load i32, i32* %6, align 4
  %82 = sext i32 %81 to i64
  %83 = getelementptr inbounds i8, i8* %80, i64 %82
  %84 = load i8, i8* %83, align 1
  %85 = load i8*, i8** %2, align 8
  %86 = load i32, i32* %5, align 4
  %87 = sext i32 %86 to i64
  %88 = getelementptr inbounds i8, i8* %85, i64 %87
  %89 = load i32, i32* %6, align 4
  %90 = sext i32 %89 to i64
  %91 = getelementptr inbounds i8, i8* %88, i64 %90
  store i8 %84, i8* %91, align 1
  br label %92

92:                                               ; preds = %79
  %93 = load i32, i32* %6, align 4
  %94 = add nsw i32 %93, 1
  store i32 %94, i32* %6, align 4
  br label %71

95:                                               ; preds = %71
  br label %101

96:                                               ; preds = %67
  br label %97

97:                                               ; preds = %96, %25
  br label %98

98:                                               ; preds = %97
  %99 = load i32, i32* %5, align 4
  %100 = add nsw i32 %99, 1
  store i32 %100, i32* %5, align 4
  br label %17

101:                                              ; preds = %95, %17
  %102 = load i8*, i8** %2, align 8
  %103 = call i32 (i8*, ...) @printf(i8* getelementptr inbounds ([3 x i8], [3 x i8]* @.str, i64 0, i64 0), i8* %102)
  %104 = load i32, i32* %1, align 4
  ret i32 %104
}

; Function Attrs: nounwind
declare dso_local noalias i8* @malloc(i64) #1

declare dso_local i32 @gets(...) #2

declare dso_local i32 @printf(i8*, ...) #2


!llvm.module.flags = !{!0}
!llvm.ident = !{!1}

!0 = !{i32 1, !"wchar_size", i32 4}
!1 = !{!"clang version 10.0.0-4ubuntu1 "}
